target datalayout = "e-m:e-p270:32:32-p271:32:32-p272:64:64-i64:64-i128:128-f80:128-n8:16:32:64-S128"
target triple = "x86_64-pc-linux-gnu"

%"class.google::protobuf::internal::SymbolBase" = type { i8 }
%"class.std::__cxx11::basic_string" = type { %"struct.std::__cxx11::basic_string<char>::_Alloc_hider", i64, %union.anon }
%"struct.std::__cxx11::basic_string<char>::_Alloc_hider" = type { ptr }
%union.anon = type { i64, [8 x i8] }
%"class.google::protobuf::Reflection" = type <{ ptr, %"struct.google::protobuf::internal::ReflectionSchema", ptr, ptr, i32, [4 x i8] }>
%"struct.google::protobuf::internal::ReflectionSchema" = type { ptr, ptr, ptr, i32, i32, i32, i32, i32, i32, ptr, i32 }
%"class.google::protobuf::FieldDescriptor" = type { %"class.google::protobuf::internal::SymbolBase", i8, i8, i8, i32, ptr, ptr, ptr, ptr, %union.anon.4, %union.anon.5, ptr, %union.anon.6 }
%union.anon.4 = type { ptr }
%union.anon.5 = type { ptr }
%union.anon.6 = type { i64 }
%"class.google::protobuf::internal::LogMessage" = type { i32, ptr, i32, %"class.std::__cxx11::basic_string" }
%"class.google::protobuf::internal::LogFinisher" = type { i8 }

@.str.102 = private unnamed_addr constant [160 x i8] c"generated/home/dtcxzyw/WorkSpace/Projects/compilers/llvm-opt-benchmark/bench/opencv/opencv/3rdparty/protobuf/src/google/protobuf/generated_message_reflection.h\00", align 1
@.str.134 = private unnamed_addr constant [34 x i8] c"CHECK failed: HasExtensionSet(): \00", align 1

; Function Attrs: mustprogress nounwind uwtable
define linkonce_odr hidden noundef ptr @_ZN6google8protobuf8internal23GetConstPointerAtOffsetINS1_12ExtensionSetEEEPKT_PKNS0_7MessageEj(ptr noundef %0, i32 noundef %1) #10 comdat {
  %3 = alloca ptr, align 8
  %4 = alloca i32, align 4
  store ptr %0, ptr %3, align 8, !tbaa !38
  store i32 %1, ptr %4, align 4, !tbaa !14
  %5 = load ptr, ptr %3, align 8, !tbaa !38
  %6 = load i32, ptr %4, align 4, !tbaa !14
  %7 = zext i32 %6 to i64
  %8 = getelementptr inbounds nuw i8, ptr %5, i64 %7
  ret ptr %8
}

; Function Attrs: mustprogress nounwind uwtable
define linkonce_odr hidden noundef zeroext i1 @_ZNK6google8protobuf8internal16ReflectionSchema15HasExtensionSetEv(ptr noundef nonnull align 8 dereferenceable(64) %0) #10 comdat align 2 {
  %2 = alloca ptr, align 8
  store ptr %0, ptr %2, align 8, !tbaa !27
  %3 = load ptr, ptr %2, align 8
  %4 = getelementptr inbounds nuw %"struct.google::protobuf::internal::ReflectionSchema", ptr %3, i32 0, i32 5
  %5 = load i32, ptr %4, align 8, !tbaa !74
  %6 = icmp ne i32 %5, -1
  ret i1 %6
}

; Function Attrs: mustprogress uwtable
define linkonce_odr hidden noundef nonnull align 8 dereferenceable(24) ptr @_ZN6google8protobuf8internal19GetConstRefAtOffsetINS1_12ExtensionSetEEERKT_RKNS0_7MessageEj(ptr noundef nonnull align 8 dereferenceable(16) %0, i32 noundef %1) #4 comdat {
  %3 = alloca ptr, align 8
  %4 = alloca i32, align 4
  store ptr %0, ptr %3, align 8, !tbaa !38
  store i32 %1, ptr %4, align 4, !tbaa !14
  %5 = load ptr, ptr %3, align 8, !tbaa !38
  %6 = load i32, ptr %4, align 4, !tbaa !14
  %7 = call noundef ptr @_ZN6google8protobuf8internal23GetConstPointerAtOffsetINS1_12ExtensionSetEEEPKT_PKNS0_7MessageEj(ptr noundef %5, i32 noundef %6)
  ret ptr %7
}

; Function Attrs: mustprogress uwtable
define linkonce_odr hidden noundef i32 @_ZNK6google8protobuf8internal16ReflectionSchema21GetExtensionSetOffsetEv(ptr noundef nonnull align 8 dereferenceable(64) %0) #4 comdat align 2 personality ptr @__gxx_personality_v0 {
  %2 = alloca ptr, align 8
  %3 = alloca %"class.google::protobuf::internal::LogMessage", align 8
  %4 = alloca i1, align 1
  %5 = alloca i1, align 1
  %6 = alloca ptr, align 8
  %7 = alloca i32, align 4
  %8 = alloca %"class.google::protobuf::internal::LogFinisher", align 1
  store ptr %0, ptr %2, align 8, !tbaa !27
  %9 = load ptr, ptr %2, align 8
  br label %10

10:                                               ; preds = %24, %1
  br i1 false, label %11, label %40

11:                                               ; preds = %10
  %12 = call noundef zeroext i1 @_ZNK6google8protobuf8internal16ReflectionSchema15HasExtensionSetEv(ptr noundef nonnull align 8 dereferenceable(64) %9)
  store i1 false, ptr %4, align 1
  store i1 false, ptr %5, align 1
  call void @llvm.lifetime.start.p0(i64 1, ptr %8) #3
  br i1 %12, label %13, label %14

13:                                               ; preds = %11
  br label %18

14:                                               ; preds = %11
  call void @llvm.lifetime.start.p0(i64 56, ptr %3) #3
  store i1 true, ptr %4, align 1
  call void @_ZN6google8protobuf8internal10LogMessageC1ENS0_8LogLevelEPKci(ptr noundef nonnull align 8 dereferenceable(56) %3, i32 noundef 3, ptr noundef @.str.102, i32 noundef 202)
  store i1 true, ptr %5, align 1
  %15 = invoke noundef nonnull align 8 dereferenceable(56) ptr @_ZN6google8protobuf8internal10LogMessagelsEPKc(ptr noundef nonnull align 8 dereferenceable(56) %3, ptr noundef @.str.134)
          to label %16 unwind label %25

16:                                               ; preds = %14
  invoke void @_ZN6google8protobuf8internal11LogFinisheraSERNS1_10LogMessageE(ptr noundef nonnull align 1 dereferenceable(1) %8, ptr noundef nonnull align 8 dereferenceable(56) %15)
          to label %17 unwind label %29

17:                                               ; preds = %16
  br label %18

18:                                               ; preds = %17, %13
  call void @llvm.lifetime.end.p0(i64 1, ptr %8) #3
  %19 = load i1, ptr %5, align 1
  br i1 %19, label %20, label %21

20:                                               ; preds = %18
  call void @_ZN6google8protobuf8internal10LogMessageD1Ev(ptr noundef nonnull align 8 dereferenceable(56) %3) #3
  br label %21

21:                                               ; preds = %20, %18
  %22 = load i1, ptr %4, align 1
  br i1 %22, label %23, label %24

23:                                               ; preds = %21
  call void @llvm.lifetime.end.p0(i64 56, ptr %3) #3
  br label %24

24:                                               ; preds = %23, %21
  br label %10, !llvm.loop !278

25:                                               ; preds = %14
  %26 = landingpad { ptr, i32 }
          cleanup
  %27 = extractvalue { ptr, i32 } %26, 0
  store ptr %27, ptr %6, align 8
  %28 = extractvalue { ptr, i32 } %26, 1
  store i32 %28, ptr %7, align 4
  br label %33

29:                                               ; preds = %16
  %30 = landingpad { ptr, i32 }
          cleanup
  %31 = extractvalue { ptr, i32 } %30, 0
  store ptr %31, ptr %6, align 8
  %32 = extractvalue { ptr, i32 } %30, 1
  store i32 %32, ptr %7, align 4
  call void @llvm.lifetime.end.p0(i64 1, ptr %8) #3
  br label %33

33:                                               ; preds = %29, %25
  %34 = load i1, ptr %5, align 1
  br i1 %34, label %35, label %36

35:                                               ; preds = %33
  call void @_ZN6google8protobuf8internal10LogMessageD1Ev(ptr noundef nonnull align 8 dereferenceable(56) %3) #3
  br label %36

36:                                               ; preds = %35, %33
  %37 = load i1, ptr %4, align 1
  br i1 %37, label %38, label %39

38:                                               ; preds = %36
  call void @llvm.lifetime.end.p0(i64 56, ptr %3) #3
  br label %39

39:                                               ; preds = %38, %36
  br label %43

40:                                               ; preds = %10
  %41 = getelementptr inbounds nuw %"struct.google::protobuf::internal::ReflectionSchema", ptr %9, i32 0, i32 5
  %42 = load i32, ptr %41, align 8, !tbaa !74
  ret i32 %42

43:                                               ; preds = %39
  %44 = load ptr, ptr %6, align 8
  %45 = load i32, ptr %7, align 4
  %46 = insertvalue { ptr, i32 } poison, ptr %44, 0
  %47 = insertvalue { ptr, i32 } %46, i32 %45, 1
  resume { ptr, i32 } %47
}

; Function Attrs: inlinehint mustprogress nounwind uwtable
define linkonce_odr hidden noundef i32 @_ZNK6google8protobuf15FieldDescriptor6numberEv(ptr noundef nonnull align 8 dereferenceable(72) %0) #6 comdat align 2 {
  %2 = alloca ptr, align 8
  store ptr %0, ptr %2, align 8, !tbaa !57
  %3 = load ptr, ptr %2, align 8
  %4 = getelementptr inbounds nuw %"class.google::protobuf::FieldDescriptor", ptr %3, i32 0, i32 4
  %5 = load i32, ptr %4, align 4, !tbaa !58
  ret i32 %5
}

; Function Attrs: mustprogress uwtable
define hidden noundef nonnull align 8 dereferenceable(24) ptr @_ZNK6google8protobuf10Reflection15GetExtensionSetERKNS0_7MessageE(ptr noundef nonnull align 8 dereferenceable(96) %0, ptr noundef nonnull align 8 dereferenceable(16) %1) #4 align 2 {
  %3 = alloca ptr, align 8
  %4 = alloca ptr, align 8
  store ptr %0, ptr %3, align 8, !tbaa !23
  store ptr %1, ptr %4, align 8, !tbaa !38
  %5 = load ptr, ptr %3, align 8
  %6 = load ptr, ptr %4, align 8, !tbaa !38
  %7 = getelementptr inbounds nuw %"class.google::protobuf::Reflection", ptr %5, i32 0, i32 1
  %8 = call noundef i32 @_ZNK6google8protobuf8internal16ReflectionSchema21GetExtensionSetOffsetEv(ptr noundef nonnull align 8 dereferenceable(64) %7)
  %9 = call noundef nonnull align 8 dereferenceable(24) ptr @_ZN6google8protobuf8internal19GetConstRefAtOffsetINS1_12ExtensionSetEEERKT_RKNS0_7MessageEj(ptr noundef nonnull align 8 dereferenceable(16) %6, i32 noundef %8)
  ret ptr %9
}

; Function Attrs: inlinehint mustprogress nounwind uwtable
define linkonce_odr hidden noundef zeroext i1 @_ZNK6google8protobuf15FieldDescriptor12is_extensionEv(ptr noundef nonnull align 8 dereferenceable(72) %0) #6 comdat align 2 {
  %2 = alloca ptr, align 8
  store ptr %0, ptr %2, align 8, !tbaa !57
  %3 = load ptr, ptr %2, align 8
  %4 = getelementptr inbounds nuw %"class.google::protobuf::FieldDescriptor", ptr %3, i32 0, i32 1
  %5 = load i8, ptr %4, align 1
  %6 = lshr i8 %5, 3
  %7 = and i8 %6, 1
  %8 = trunc i8 %7 to i1
  ret i1 %8
}

; Function Attrs: mustprogress uwtable
define hidden noundef zeroext i1 @_ZNK6google8protobuf10Reflection15IsLazyExtensionERKNS0_7MessageEPKNS0_15FieldDescriptorE(ptr noundef nonnull align 8 dereferenceable(96) %0, ptr noundef nonnull align 8 dereferenceable(16) %1, ptr noundef %2) #4 align 2 {
  %4 = alloca ptr, align 8
  %5 = alloca ptr, align 8
  %6 = alloca ptr, align 8
  store ptr %0, ptr %4, align 8, !tbaa !23
  store ptr %1, ptr %5, align 8, !tbaa !38
  store ptr %2, ptr %6, align 8, !tbaa !57
  %7 = load ptr, ptr %4, align 8
  %8 = load ptr, ptr %6, align 8, !tbaa !57
  %9 = call noundef zeroext i1 @_ZNK6google8protobuf15FieldDescriptor12is_extensionEv(ptr noundef nonnull align 8 dereferenceable(72) %8)
  br i1 %9, label %10, label %16

10:                                               ; preds = %3
  %11 = load ptr, ptr %5, align 8, !tbaa !38
  %12 = call noundef nonnull align 8 dereferenceable(24) ptr @_ZNK6google8protobuf10Reflection15GetExtensionSetERKNS0_7MessageE(ptr noundef nonnull align 8 dereferenceable(96) %7, ptr noundef nonnull align 8 dereferenceable(16) %11)
  %13 = load ptr, ptr %6, align 8, !tbaa !57
  %14 = call noundef i32 @_ZNK6google8protobuf15FieldDescriptor6numberEv(ptr noundef nonnull align 8 dereferenceable(72) %13)
  %15 = call noundef zeroext i1 @_ZNK6google8protobuf8internal12ExtensionSet7HasLazyEi(ptr noundef nonnull align 8 dereferenceable(24) %12, i32 noundef %14)
  br label %16

16:                                               ; preds = %10, %3
  %17 = phi i1 [ false, %3 ], [ %15, %10 ]
  ret i1 %17
}