; Function Attrs: mustprogress uwtable
define hidden noundef zeroext i1 @_ZNK6google8protobuf10Reflection15IsLazyExtensionERKNS0_7MessageEPKNS0_15FieldDescriptorE(ptr noundef nonnull readonly align 8 captures(none) dereferenceable(96) %0, ptr noundef nonnull align 8 dereferenceable(16) %1, ptr noundef readonly captures(none) %2) local_unnamed_addr #3 align 2 personality ptr @__gxx_personality_v0 {
  %4 = getelementptr inbounds nuw i8, ptr %2, i64 1
  %5 = load i8, ptr %4, align 1
  %6 = and i8 %5, 8
  %.not = icmp eq i8 %6, 0
  br i1 %.not, label %15, label %7

7:                                                ; preds = %3
  %8 = getelementptr inbounds nuw i8, ptr %0, i64 40
  %9 = load i32, ptr %8, align 8, !tbaa !49
  %10 = zext i32 %9 to i64
  %11 = getelementptr inbounds nuw i8, ptr %1, i64 %10
  %12 = getelementptr inbounds nuw i8, ptr %2, i64 4
  %13 = load i32, ptr %12, align 4, !tbaa !50
  %14 = tail call noundef zeroext i1 @_ZNK6google8protobuf8internal12ExtensionSet7HasLazyEi(ptr noundef nonnull align 8 dereferenceable(24) %11, i32 noundef %13)
  br label %15

15:                                               ; preds = %7, %3
  %16 = phi i1 [ false, %3 ], [ %14, %7 ]
  ret i1 %16
}